--- !tapi-tbd-v3
archs:                 [ armv7, armv7s, arm64, arm64e ]
platform:              ios
flags:                 [ flat_namespace ]
install-name:          /usr/lib/libHSFilerDynamic.dylib
current-version:       1
compatibility-version: 1
exports:
  - archs:                [ armv7, armv7s, arm64, arm64e ]
    symbols:              [ __ZN14HSFilerSession10addToQueueERKNSt3__16vectorINS0_12basic_stringIcNS0_11char_traitsIcEENS0_9allocatorIcEEEENS5_IS7_EEEEN8dispatch5blockIU13block_pointerFvy13HSFilerStatusEEEj,
                            __ZN14HSFilerSession15removeFromQueueEv,
                            __ZN14HSFilerSessionC1E15HSFilerClientIDy,
                            __ZN14HSFilerSessionC2E15HSFilerClientIDy,
                            __ZN14HSFilerSessionD0Ev, __ZN14HSFilerSessionD1Ev,
                            __ZN14HSFilerSessionD2Ev,
                            __ZN18HSFilerReadSession12readWithBuffERKNSt3__112basic_stringIcNS0_11char_traitsIcEENS0_9allocatorIcEEEENS0_10shared_ptrINS0_6vectorIhNS4_IhEEEEEEN8dispatch5blockIU13block_pointerFvy13HSFilerStatusS8_EEE,
                            __ZN18HSFilerReadSession12readWithFileERKNSt3__112basic_stringIcNS0_11char_traitsIcEENS0_9allocatorIcEEEES6_N8dispatch5blockIU13block_pointerFvy13HSFilerStatusS8_EEE,
                            __ZN18HSFilerReadSession14readWithStreamERKNSt3__112basic_stringIcNS0_11char_traitsIcEENS0_9allocatorIcEEEENS0_10shared_ptrINS0_13basic_ostreamIcS3_EEEEN8dispatch5blockIU13block_pointerFvy13HSFilerStatusS8_EEE,
                            __ZN18HSFilerReadSession6createE15HSFilerClientIDN8dispatch5queueE,
                            __ZN18HSFilerReadSessionC1E15HSFilerClientIDy,
                            __ZN18HSFilerReadSessionC2E15HSFilerClientIDy,
                            __ZN18HSFilerReadSessionD0Ev,
                            __ZN18HSFilerReadSessionD1Ev,
                            __ZN18HSFilerReadSessionD2Ev,
                            __ZN18hsfiler_log_clientC1EPKc,
                            __ZN18hsfiler_log_clientC2EPKc,
                            __ZN19HSFilerWriteSession13writeWithBuffERKNSt3__112basic_stringIcNS0_11char_traitsIcEENS0_9allocatorIcEEEENS0_10shared_ptrINS0_6vectorIhNS4_IhEEEEEEN8dispatch5blockIU13block_pointerFvy13HSFilerStatusS8_EEE,
                            __ZN19HSFilerWriteSession13writeWithFileERKNSt3__112basic_stringIcNS0_11char_traitsIcEENS0_9allocatorIcEEEES6_N8dispatch5blockIU13block_pointerFvy13HSFilerStatusS8_EEE,
                            __ZN19HSFilerWriteSession15writeWithStreamERKNSt3__112basic_stringIcNS0_11char_traitsIcEENS0_9allocatorIcEEEENS0_10shared_ptrINS0_13basic_istreamIcS3_EEEEN8dispatch5blockIU13block_pointerFvy13HSFilerStatusS8_EEE,
                            __ZN19HSFilerWriteSession6createE15HSFilerClientIDN8dispatch5queueE,
                            __ZN19HSFilerWriteSessionC1E15HSFilerClientIDy,
                            __ZN19HSFilerWriteSessionC2E15HSFilerClientIDy,
                            __ZN19HSFilerWriteSessionD0Ev,
                            __ZN19HSFilerWriteSessionD1Ev,
                            __ZN19HSFilerWriteSessionD2Ev,
                            __ZN19hsfiler_log_manager12set_defaultsEv,
                            __ZN19hsfiler_log_managerC1Ev,
                            __ZN19hsfiler_log_managerC2Ev,
                            __ZN7hsfiler7logging12getLogServerEv,
                            __ZN7hsfiler7support13validClientIDE15HSFilerClientID,
                            __ZN7hsfiler7support9to_stringE13HSFilerStatus,
                            __ZN7hsfiler7support9to_stringE15HSFilerClientID,
                            __ZN7support2fs8SyncFile10close_syncEv,
                            __ZN7support2fs8SyncFile10flush_syncEv,
                            __ZN7support2fs8SyncFile10write_syncEPKcm,
                            __ZN7support2fs8SyncFile12getLogClientEv,
                            __ZN7support2fs8SyncFile4openEv,
                            __ZN7support2fs8SyncFile4readEPcm,
                            __ZN7support2fs8SyncFile5closeEv,
                            __ZN7support2fs8SyncFile5flushEv,
                            __ZN7support2fs8SyncFile5writeEPKcm,
                            __ZN7support2fs8SyncFile6createENSt3__112basic_stringIcNS2_11char_traitsIcEENS2_9allocatorIcEEEEjm,
                            __ZN7support2fs8SyncFile7getSizeEv,
                            __ZN7support2fs8SyncFile9open_syncEv,
                            __ZN7support2fs8SyncFile9read_syncEPcm,
                            __ZN7support2fs8SyncFileC1ERKNSt3__112basic_stringIcNS2_11char_traitsIcEENS2_9allocatorIcEEEEjm,
                            __ZN7support2fs8SyncFileC2ERKNSt3__112basic_stringIcNS2_11char_traitsIcEENS2_9allocatorIcEEEEjm,
                            __ZN7support2fs8SyncFileD0Ev,
                            __ZN7support2fs8SyncFileD1Ev,
                            __ZN7support2fs8SyncFileD2Ev,
                            __ZN7support3log14manager_globalC1Ev,
                            __ZN7support3log14manager_globalC2Ev,
                            __ZN7support3log15stdout_delegate6createENSt3__18weak_ptrINS0_8delegate7contextEEE,
                            __ZN7support3log15stdout_delegate6createEv,
                            __ZN7support3log15stdout_delegate7messageERKNS0_7detailsEPKc,
                            __ZN7support3log15stdout_delegateC1ENSt3__18weak_ptrINS0_8delegate7contextEEE,
                            __ZN7support3log15stdout_delegateC2ENSt3__18weak_ptrINS0_8delegate7contextEEE,
                            __ZN7support3log6client10descriptorC1ENSt3__112basic_stringIcNS3_11char_traitsIcEENS3_9allocatorIcEEEES9_,
                            __ZN7support3log6client10descriptorC2ENSt3__112basic_stringIcNS3_11char_traitsIcEENS3_9allocatorIcEEEES9_,
                            __ZN7support3log6clientC1ENSt3__112basic_stringIcNS2_11char_traitsIcEENS2_9allocatorIcEEEES8_,
                            __ZN7support3log6clientC1ENSt3__112basic_stringIcNS2_11char_traitsIcEENS2_9allocatorIcEEEES8_NS2_10shared_ptrINS0_7managerEEE,
                            __ZN7support3log6clientC1ENSt3__112basic_stringIcNS2_11char_traitsIcEENS2_9allocatorIcEEEES8_PKNS0_7managerE,
                            __ZN7support3log6clientC2ENSt3__112basic_stringIcNS2_11char_traitsIcEENS2_9allocatorIcEEEES8_,
                            __ZN7support3log6clientC2ENSt3__112basic_stringIcNS2_11char_traitsIcEENS2_9allocatorIcEEEES8_NS2_10shared_ptrINS0_7managerEEE,
                            __ZN7support3log6clientC2ENSt3__112basic_stringIcNS2_11char_traitsIcEENS2_9allocatorIcEEEES8_PKNS0_7managerE,
                            __ZN7support3log7manager10parameters12set_defaultsEv,
                            __ZN7support3log7manager10parametersC1ENS0_5levelE,
                            __ZN7support3log7manager10parametersC1Ev,
                            __ZN7support3log7manager10parametersC2ENS0_5levelE,
                            __ZN7support3log7manager10parametersC2Ev,
                            __ZN7support3log7manager12add_delegateEONSt3__110unique_ptrINS0_8delegateENS2_14default_deleteIS4_EEEE,
                            __ZN7support3log7manager12set_defaultsEv,
                            __ZN7support3log7manager13add_delegatesEONSt3__14listINS2_10unique_ptrINS0_8delegateENS2_14default_deleteIS5_EEEENS2_9allocatorIS8_EEEE,
                            __ZN7support3log7manager6createENSt3__112basic_stringIcNS2_11char_traitsIcEENS2_9allocatorIcEEEERKNS1_10parametersEONS2_10unique_ptrINS0_8delegateENS2_14default_deleteISD_EEEE,
                            __ZN7support3log7manager6createENSt3__112basic_stringIcNS2_11char_traitsIcEENS2_9allocatorIcEEEERKNS1_10parametersEONS2_4listINS2_10unique_ptrINS0_8delegateENS2_14default_deleteISE_EEEENS6_ISH_EEEE,
                            __ZN7support3log7manager9set_levelENS0_5levelE,
                            __ZN7support3log7managerC1ENSt3__112basic_stringIcNS2_11char_traitsIcEENS2_9allocatorIcEEEERKNS1_10parametersEONS2_10unique_ptrINS0_8delegateENS2_14default_deleteISD_EEEE,
                            __ZN7support3log7managerC1ENSt3__112basic_stringIcNS2_11char_traitsIcEENS2_9allocatorIcEEEERKNS1_10parametersEONS2_4listINS2_10unique_ptrINS0_8delegateENS2_14default_deleteISE_EEEENS6_ISH_EEEE,
                            __ZN7support3log7managerC2ENSt3__112basic_stringIcNS2_11char_traitsIcEENS2_9allocatorIcEEEERKNS1_10parametersEONS2_10unique_ptrINS0_8delegateENS2_14default_deleteISD_EEEE,
                            __ZN7support3log7managerC2ENSt3__112basic_stringIcNS2_11char_traitsIcEENS2_9allocatorIcEEEERKNS1_10parametersEONS2_4listINS2_10unique_ptrINS0_8delegateENS2_14default_deleteISE_EEEENS6_ISH_EEEE,
                            __ZN7support3log8delegate7context6createEPv,
                            __ZN7support3log8delegate7contextC1EPv,
                            __ZN7support3log8delegate7contextC2EPv,
                            __ZN7support3log8delegateC2ENSt3__18weak_ptrINS1_7contextEEE,
                            __ZN7support9transport12PCIMemRegion11mapVMRegionEv,
                            __ZN7support9transport12PCIMemRegion12getLogClientEv,
                            __ZN7support9transport12PCIMemRegion13unmapVMRegionEv,
                            __ZN7support9transport12PCIMemRegion16allocateVMRegionEm,
                            __ZN7support9transport12PCIMemRegion16freePCITransportEv,
                            __ZN7support9transport12PCIMemRegion18createPCITransportEv,
                            __ZN7support9transport12PCIMemRegion18deallocateVMRegionEv,
                            __ZN7support9transport12PCIMemRegion25mapVMRegionWithClientDataEPvm,
                            __ZN7support9transport12PCIMemRegion6createERKNSt3__112basic_stringIcNS2_11char_traitsIcEENS2_9allocatorIcEEEE21PCITransportMemRegionmPvmjPKNS_3log7managerE,
                            __ZN7support9transport12PCIMemRegion6createERKNSt3__112basic_stringIcNS2_11char_traitsIcEENS2_9allocatorIcEEEE21PCITransportMemRegionmjPKNS_3log7managerE,
                            __ZN7support9transport12PCIMemRegionC1ERKNSt3__112basic_stringIcNS2_11char_traitsIcEENS2_9allocatorIcEEEE21PCITransportMemRegionPKNS_3log7managerEj,
                            __ZN7support9transport12PCIMemRegionC2ERKNSt3__112basic_stringIcNS2_11char_traitsIcEENS2_9allocatorIcEEEE21PCITransportMemRegionPKNS_3log7managerEj,
                            __ZN7support9transport12PCIMemRegionD0Ev,
                            __ZN7support9transport12PCIMemRegionD1Ev,
                            __ZN7support9transport12PCIMemRegionD2Ev,
                            __ZN7support9transport3ARI12getLogClientEv,
                            __ZN7support9transport3ARI13getKTLOptionsEv,
                            __ZN7support9transport3ARI17getLibTUTransportEv,
                            __ZN7support9transport3ARI6createEPKcbPKNS_3log7managerE,
                            __ZN7support9transport3ARI6createEPKcjjPKNS_3log7managerE,
                            __ZN7support9transport3ARI6createEPKcjjbPKNS_3log7managerE,
                            __ZN7support9transport3ARI6initRTEPKcjj,
                            __ZN7support9transport3ARI9initLibTUEPKcjj,
                            __ZN7support9transport3ARIC1EPKNS_3log7managerE,
                            __ZN7support9transport3ARIC2EPKNS_3log7managerE,
                            __ZN7support9transport3ARID0Ev,
                            __ZN7support9transport3ARID1Ev,
                            __ZN7support9transport3ARID2Ev,
                            __ZN7support9transport5AriRT6createEPKcPKNS_3log7managerE,
                            __ZN7support9transport5AriRT6createEPKcjjPKNS_3log7managerE,
                            __ZN7support9transport5AriRTC1EPKNS_3log7managerE,
                            __ZN7support9transport5AriRTC2EPKNS_3log7managerE,
                            __ZN9HSFilerRT10endSessionEv,
                            __ZN9HSFilerRT11statusFatalE13HSFilerStatus,
                            __ZN9HSFilerRT12queueSessionE15HSFilerClientIDyRKNSt3__16vectorINS1_12basic_stringIcNS1_11char_traitsIcEENS1_9allocatorIcEEEENS6_IS8_EEEEN8dispatch5blockIU13block_pointerFvy13HSFilerStatusEEEj,
                            __ZN9HSFilerRT12readWithBuffE15HSFilerClientIDyRKNSt3__112basic_stringIcNS1_11char_traitsIcEENS1_9allocatorIcEEEENS1_10shared_ptrINS1_6vectorIhNS5_IhEEEEEEN8dispatch5blockIU13block_pointerFvy13HSFilerStatusS9_EEE,
                            __ZN9HSFilerRT12readWithFileE15HSFilerClientIDyRKNSt3__112basic_stringIcNS1_11char_traitsIcEENS1_9allocatorIcEEEES7_N8dispatch5blockIU13block_pointerFvy13HSFilerStatusS9_EEE,
                            __ZN9HSFilerRT12startSessionEv,
                            __ZN9HSFilerRT13createSessionEb15HSFilerClientIDN8dispatch5queueE,
                            __ZN9HSFilerRT13readFile_syncENSt3__110shared_ptrINS_7SessionEEERKNS0_12basic_stringIcNS0_11char_traitsIcEENS0_9allocatorIcEEEEy,
                            __ZN9HSFilerRT13writeWithBuffE15HSFilerClientIDyRKNSt3__112basic_stringIcNS1_11char_traitsIcEENS1_9allocatorIcEEEENS1_10shared_ptrINS1_6vectorIhNS5_IhEEEEEEN8dispatch5blockIU13block_pointerFvy13HSFilerStatusS9_EEE,
                            __ZN9HSFilerRT13writeWithFileE15HSFilerClientIDyRKNSt3__112basic_stringIcNS1_11char_traitsIcEENS1_9allocatorIcEEEES7_N8dispatch5blockIU13block_pointerFvy13HSFilerStatusS9_EEE,
                            __ZN9HSFilerRT14destroySessionE15HSFilerClientIDy,
                            __ZN9HSFilerRT14readWithStreamE15HSFilerClientIDyRKNSt3__112basic_stringIcNS1_11char_traitsIcEENS1_9allocatorIcEEEENS1_10shared_ptrINS1_13basic_ostreamIcS4_EEEEN8dispatch5blockIU13block_pointerFvy13HSFilerStatusS9_EEE,
                            __ZN9HSFilerRT14writeFile_syncENSt3__110shared_ptrINS_7SessionEEERKNS0_12basic_stringIcNS0_11char_traitsIcEENS0_9allocatorIcEEEEy,
                            __ZN9HSFilerRT15endSession_syncENSt3__110shared_ptrINS_7SessionEEE,
                            __ZN9HSFilerRT15writeWithStreamE15HSFilerClientIDyRKNSt3__112basic_stringIcNS1_11char_traitsIcEENS1_9allocatorIcEEEENS1_10shared_ptrINS1_13basic_istreamIcS4_EEEEN8dispatch5blockIU13block_pointerFvy13HSFilerStatusS9_EEE,
                            __ZN9HSFilerRT16findSession_syncE15HSFilerClientIDy,
                            __ZN9HSFilerRT16getFileSize_syncENSt3__110shared_ptrINS_7SessionEEERKNS0_12basic_stringIcNS0_11char_traitsIcEENS0_9allocatorIcEEEE,
                            __ZN9HSFilerRT17abortSession_syncE15HSFilerClientIDy13HSFilerStatusRb,
                            __ZN9HSFilerRT18resetBaseband_syncE15HSFilerClientIDy13HSFilerStatus,
                            __ZN9HSFilerRT19destroySession_syncENSt3__110shared_ptrINS_7SessionEEE,
                            __ZN9HSFilerRT21create_default_globalEv,
                            __ZN9HSFilerRT21logSessionStatus_syncENSt3__110shared_ptrINS_7SessionEEE,
                            __ZN9HSFilerRT21sessionScheduler_syncEv,
                            __ZN9HSFilerRT21startReadSession_syncENSt3__110shared_ptrINS_7SessionEEE,
                            __ZN9HSFilerRT22removeSessionFromQueueE15HSFilerClientIDy,
                            __ZN9HSFilerRT22startWriteSession_syncENSt3__110shared_ptrINS_7SessionEEE,
                            __ZN9HSFilerRT23handleSessionError_syncE15HSFilerClientIDy13HSFilerStatus,
                            __ZN9HSFilerRT25basebandReadyEventHandlerEv,
                            __ZN9HSFilerRT25basebandResetEventHandlerEv,
                            __ZN9HSFilerRT29registerBasebandResetDelegateEN8dispatch5blockIU13block_pointerFvNSt3__112basic_stringIcNS2_11char_traitsIcEENS2_9allocatorIcEEEEEEE,
                            __ZN9HSFilerRT33logSessionFileTransferStatus_syncENSt3__110shared_ptrINS_7SessionEEE,
                            __ZN9HSFilerRT7Session15fileTransferredERKNSt3__112basic_stringIcNS1_11char_traitsIcEENS1_9allocatorIcEEEE,
                            __ZN9HSFilerRT7Session19allFilesTransferredEv,
                            __ZN9HSFilerRT7Session21markFileAsTransferredERKNSt3__112basic_stringIcNS1_11char_traitsIcEENS1_9allocatorIcEEEE,
                            __ZN9HSFilerRT7Session3endEv,
                            __ZN9HSFilerRT7Session7hasFileERKNSt3__112basic_stringIcNS1_11char_traitsIcEENS1_9allocatorIcEEEE,
                            __ZN9HSFilerRT7SessionC1E15HSFilerClientIDbN8dispatch5queueE,
                            __ZN9HSFilerRT7SessionC2E15HSFilerClientIDbN8dispatch5queueE,
                            __ZN9HSFilerRT7SessionD1Ev,
                            __ZN9HSFilerRT7SessionD2Ev,
                            __ZN9HSFilerRT9dumpStateEv, __ZN9HSFilerRTC1Ev,
                            __ZN9HSFilerRTC2Ev, __ZN9HSFilerRTD0Ev,
                            __ZN9HSFilerRTD1Ev, __ZN9HSFilerRTD2Ev,
                            __ZNK7support2fs8SyncFile11isOpen_syncEv,
                            __ZNK7support2fs8SyncFile6isOpenEv,
                            __ZNK7support2fs8SyncFile7getPathEv,
                            __ZNK7support3log6client10descriptoreqERKS2_,
                            __ZNK7support3log6client11get_managerEv,
                            __ZNK7support3log6client14get_descriptorEv,
                            __ZNK7support3log7manager14get_log_bufferEv,
                            __ZNK7support3log7manager17message_delegatesERKNS0_7detailsEPc,
                            __ZNK7support3log7manager18release_log_bufferEPc,
                            __ZNK7support3log7manager9get_levelEv,
                            __ZNK7support3log8delegate11get_contextEv,
                            __ZTI14HSFilerSession, __ZTI18HSFilerReadSession,
                            __ZTI19HSFilerWriteSession,
                            __ZTI19hsfiler_log_manager, __ZTI9HSFilerRT,
                            __ZTIN7support2fs8SyncFileE,
                            __ZTIN7support3log15stdout_delegateE,
                            __ZTIN7support3log7manager10parametersE,
                            __ZTIN7support3log7managerE,
                            __ZTIN7support3log8delegateE,
                            __ZTIN7support9transport12PCIMemRegionE,
                            __ZTIN7support9transport3ARIE, __ZTS14HSFilerSession,
                            __ZTS18HSFilerReadSession,
                            __ZTS19HSFilerWriteSession,
                            __ZTS19hsfiler_log_manager, __ZTS9HSFilerRT,
                            __ZTSN7support2fs8SyncFileE,
                            __ZTSN7support3log15stdout_delegateE,
                            __ZTSN7support3log7manager10parametersE,
                            __ZTSN7support3log7managerE,
                            __ZTSN7support3log8delegateE,
                            __ZTSN7support9transport12PCIMemRegionE,
                            __ZTSN7support9transport3ARIE, __ZTV14HSFilerSession,
                            __ZTV18HSFilerReadSession,
                            __ZTV19HSFilerWriteSession,
                            __ZTV19hsfiler_log_manager, __ZTV9HSFilerRT,
                            __ZTVN7support2fs8SyncFileE,
                            __ZTVN7support3log15stdout_delegateE,
                            __ZTVN7support3log7manager10parametersE,
                            __ZTVN7support3log7managerE,
                            __ZTVN7support3log8delegateE,
                            __ZTVN7support9transport12PCIMemRegionE,
                            __ZTVN7support9transport3ARIE, _isAvailable ]
    weak-def-symbols:     [ __ZGVN3ctu9SingletonI19hsfiler_log_managerS1_NS_23PthreadMutexGuardPolicyIS1_EEE9sInstanceE,
                            __ZGVN3ctu9SingletonI9HSFilerRTS1_NS_23PthreadMutexGuardPolicyIS1_EEE9sInstanceE,
                            __ZGVN3ctu9SingletonIN7support3log14manager_globalES3_NS_23PthreadMutexGuardPolicyIS3_EEE9sInstanceE,
                            __ZGVN3ctu9SingletonIN7support3log6bufferES3_NS_23PthreadMutexGuardPolicyIS3_EEE9sInstanceE,
                            __ZN3ctu9SingletonI19hsfiler_log_managerS1_NS_23PthreadMutexGuardPolicyIS1_EEE9sInstanceE,
                            __ZN3ctu9SingletonI9HSFilerRTS1_NS_23PthreadMutexGuardPolicyIS1_EEE9sInstanceE,
                            __ZN3ctu9SingletonIN7support3log14manager_globalES3_NS_23PthreadMutexGuardPolicyIS3_EEE9sInstanceE,
                            __ZN3ctu9SingletonIN7support3log6bufferES3_NS_23PthreadMutexGuardPolicyIS3_EEE9sInstanceE,
                            __ZNSt3__119piecewise_constructE ]
...
